target datalayout = "e-m:e-p270:32:32-p271:32:32-p272:64:64-i64:64-i128:128-f80:128-n8:16:32:64-S128"
target triple = "x86_64-unknown-linux-gnu"

%"struct.icu_75::HangulIterator::Range" = type { i32, i32 }
%"class.icu_75::Normalizer2DataBuilder" = type <{ %"class.icu_75::Norms", i32, i32, i32, [20 x i32], [4 x i8], ptr, i32, [4 x i8], %"class.icu_75::UnicodeString", [256 x i8], [4 x i8], [4 x i8] }>
%"class.icu_75::Norms" = type { %"class.icu_75::UnicodeSet", %"class.icu_75::UnicodeSet", ptr, ptr, ptr }
%"class.icu_75::UnicodeSet" = type <{ %"class.icu_75::UnicodeFilter", ptr, i32, i32, i8, [7 x i8], ptr, ptr, i32, [4 x i8], ptr, i32, [4 x i8], ptr, ptr, [25 x i32], [4 x i8] }>
%"class.icu_75::UnicodeFilter" = type { %"class.icu_75::UnicodeFunctor", %"class.icu_75::UnicodeMatcher" }
%"class.icu_75::UnicodeFunctor" = type { %"class.icu_75::UObject" }
%"class.icu_75::UObject" = type { ptr }
%"class.icu_75::UnicodeMatcher" = type { ptr }
%"class.icu_75::UnicodeString" = type { %"class.icu_75::Replaceable", %"union.icu_75::UnicodeString::StackBufferOrFields" }
%"class.icu_75::Replaceable" = type { %"class.icu_75::UObject" }
%"union.icu_75::UnicodeString::StackBufferOrFields" = type { %struct.anon.0, [32 x i8] }
%struct.anon.0 = type { i16, i32, i32, ptr }
%"class.icu_75::IcuToolErrorCode" = type { %"class.icu_75::ErrorCode.base", ptr }
%"class.icu_75::ErrorCode.base" = type <{ ptr, i32 }>
%"class.icu_75::ErrorCode" = type <{ ptr, i32, [4 x i8] }>
%"class.icu_75::HangulIterator" = type { i32 }

@stderr = external global ptr, align 8
@.str.10 = private unnamed_addr constant [81 x i8] c"gennorm2 error: illegal mapping/composition/ccc data for Hangul or Jamo U+%04lX\0A\00", align 1
@.str.11 = private unnamed_addr constant [25 x i8] c"gennorm2/setHangulData()\00", align 1
@_ZTVN6icu_7516IcuToolErrorCodeE = external unnamed_addr constant { [5 x ptr] }, align 8
@_ZTVN6icu_759ErrorCodeE = external unnamed_addr constant { [5 x ptr] }, align 8

; Function Attrs: mustprogress nounwind uwtable
define linkonce_odr dso_local void @_ZN6icu_759ErrorCodeC2Ev(ptr noundef nonnull align 8 dereferenceable(12) %this) unnamed_addr #0 comdat align 2 {
entry:
  %this.addr = alloca ptr, align 8
  store ptr %this, ptr %this.addr, align 8
  %this1 = load ptr, ptr %this.addr, align 8
  store ptr getelementptr inbounds ({ [5 x ptr] }, ptr @_ZTVN6icu_759ErrorCodeE, i32 0, i32 0, i32 2), ptr %this1, align 8
  %errorCode = getelementptr inbounds %"class.icu_75::ErrorCode", ptr %this1, i32 0, i32 1
  store i32 0, ptr %errorCode, align 8
  ret void
}

; Function Attrs: mustprogress nounwind uwtable
define linkonce_odr dso_local noundef ptr @_ZN6icu_759ErrorCodecvP10UErrorCodeEv(ptr noundef nonnull align 8 dereferenceable(12) %this) #0 comdat align 2 {
entry:
  %this.addr = alloca ptr, align 8
  store ptr %this, ptr %this.addr, align 8
  %this1 = load ptr, ptr %this.addr, align 8
  %errorCode = getelementptr inbounds %"class.icu_75::ErrorCode", ptr %this1, i32 0, i32 1
  ret ptr %errorCode
}

; Function Attrs: mustprogress uwtable
define linkonce_odr dso_local void @_ZN6icu_7516IcuToolErrorCodeC2EPKc(ptr noundef nonnull align 8 dereferenceable(24) %this, ptr noundef %loc) unnamed_addr #1 comdat align 2 {
entry:
  %this.addr = alloca ptr, align 8
  %loc.addr = alloca ptr, align 8
  store ptr %this, ptr %this.addr, align 8
  store ptr %loc, ptr %loc.addr, align 8
  %this1 = load ptr, ptr %this.addr, align 8
  call void @_ZN6icu_759ErrorCodeC2Ev(ptr noundef nonnull align 8 dereferenceable(12) %this1)
  store ptr getelementptr inbounds ({ [5 x ptr] }, ptr @_ZTVN6icu_7516IcuToolErrorCodeE, i32 0, i32 0, i32 2), ptr %this1, align 8
  %location = getelementptr inbounds %"class.icu_75::IcuToolErrorCode", ptr %this1, i32 0, i32 1
  %0 = load ptr, ptr %loc.addr, align 8
  store ptr %0, ptr %location, align 8
  ret void
}

; Function Attrs: mustprogress nounwind uwtable
define linkonce_odr dso_local noundef ptr @_ZN6icu_7514HangulIterator9nextRangeEv(ptr noundef nonnull align 4 dereferenceable(4) %this) #0 comdat align 2 {
entry:
  %retval = alloca ptr, align 8
  %this.addr = alloca ptr, align 8
  store ptr %this, ptr %this.addr, align 8
  %this1 = load ptr, ptr %this.addr, align 8
  %rangeIndex = getelementptr inbounds %"class.icu_75::HangulIterator", ptr %this1, i32 0, i32 0
  %0 = load i32, ptr %rangeIndex, align 4
  %cmp = icmp slt i32 %0, 4
  br i1 %cmp, label %if.then, label %if.else

if.then:                                          ; preds = %entry
  %rangeIndex2 = getelementptr inbounds %"class.icu_75::HangulIterator", ptr %this1, i32 0, i32 0
  %1 = load i32, ptr %rangeIndex2, align 4
  %inc = add nsw i32 %1, 1
  store i32 %inc, ptr %rangeIndex2, align 4
  %idx.ext = sext i32 %1 to i64
  %add.ptr = getelementptr inbounds %"struct.icu_75::HangulIterator::Range", ptr @_ZN6icu_7514HangulIterator6rangesE, i64 %idx.ext
  store ptr %add.ptr, ptr %retval, align 8
  br label %return

if.else:                                          ; preds = %entry
  store ptr null, ptr %retval, align 8
  br label %return

return:                                           ; preds = %if.else, %if.then
  %2 = load ptr, ptr %retval, align 8
  ret ptr %2
}

; Function Attrs: mustprogress nounwind uwtable
define linkonce_odr dso_local void @_ZN6icu_7514HangulIteratorC2Ev(ptr noundef nonnull align 4 dereferenceable(4) %this) unnamed_addr #0 comdat align 2 {
entry:
  %this.addr = alloca ptr, align 8
  store ptr %this, ptr %this.addr, align 8
  %this1 = load ptr, ptr %this.addr, align 8
  %rangeIndex = getelementptr inbounds %"class.icu_75::HangulIterator", ptr %this1, i32 0, i32 0
  store i32 0, ptr %rangeIndex, align 4
  ret void
}

; Function Attrs: mustprogress uwtable
define dso_local void @_ZN6icu_7522Normalizer2DataBuilder13setHangulDataEP14UMutableCPTrie(ptr noundef nonnull align 8 dereferenceable(860) %this, ptr noundef %norm16Trie) #1 align 2 personality ptr @__gxx_personality_v0 {
entry:
  %this.addr = alloca ptr, align 8
  %norm16Trie.addr = alloca ptr, align 8
  %hi = alloca %"class.icu_75::HangulIterator", align 4
  %range = alloca ptr, align 8
  %c = alloca i32, align 4
  %errorCode = alloca %"class.icu_75::IcuToolErrorCode", align 8
  %exn.slot = alloca ptr, align 8
  %ehselector.slot = alloca i32, align 4
  %lv = alloca i32, align 4
  %lvt = alloca i32, align 4
  %c36 = alloca i32, align 4
  store ptr %this, ptr %this.addr, align 8
  store ptr %norm16Trie, ptr %norm16Trie.addr, align 8
  %this1 = load ptr, ptr %this.addr, align 8
  call void @_ZN6icu_7514HangulIteratorC2Ev(ptr noundef nonnull align 4 dereferenceable(4) %hi)
  br label %while.cond

while.cond:                                       ; preds = %for.end, %entry
  %call = call noundef ptr @_ZN6icu_7514HangulIterator9nextRangeEv(ptr noundef nonnull align 4 dereferenceable(4) %hi)
  store ptr %call, ptr %range, align 8
  %cmp = icmp ne ptr %call, null
  br i1 %cmp, label %while.body, label %while.end

while.body:                                       ; preds = %while.cond
  %0 = load ptr, ptr %range, align 8
  %start = getelementptr inbounds %"struct.icu_75::HangulIterator::Range", ptr %0, i32 0, i32 0
  %1 = load i32, ptr %start, align 4
  store i32 %1, ptr %c, align 4
  br label %for.cond

for.cond:                                         ; preds = %for.inc, %while.body
  %2 = load i32, ptr %c, align 4
  %3 = load ptr, ptr %range, align 8
  %end = getelementptr inbounds %"struct.icu_75::HangulIterator::Range", ptr %3, i32 0, i32 1
  %4 = load i32, ptr %end, align 4
  %cmp2 = icmp sle i32 %2, %4
  br i1 %cmp2, label %for.body, label %for.end

for.body:                                         ; preds = %for.cond
  %5 = load ptr, ptr %norm16Trie.addr, align 8
  %6 = load i32, ptr %c, align 4
  %call3 = call i32 @umutablecptrie_get_75(ptr noundef %5, i32 noundef %6)
  %cmp4 = icmp ugt i32 %call3, 1
  br i1 %cmp4, label %if.then, label %if.end

if.then:                                          ; preds = %for.body
  %7 = load ptr, ptr @stderr, align 8
  %8 = load i32, ptr %c, align 4
  %conv = sext i32 %8 to i64
  %call5 = call i32 (ptr, ptr, ...) @fprintf(ptr noundef %7, ptr noundef @.str.10, i64 noundef %conv)
  call void @exit(i32 noundef 3) #14
  unreachable

if.end:                                           ; preds = %for.body
  br label %for.inc

for.inc:                                          ; preds = %if.end
  %9 = load i32, ptr %c, align 4
  %inc = add nsw i32 %9, 1
  store i32 %inc, ptr %c, align 4
  br label %for.cond, !llvm.loop !11

for.end:                                          ; preds = %for.cond
  br label %while.cond, !llvm.loop !12

while.end:                                        ; preds = %while.cond
  call void @_ZN6icu_7516IcuToolErrorCodeC2EPKc(ptr noundef nonnull align 8 dereferenceable(24) %errorCode, ptr noundef @.str.11)
  %indexes = getelementptr inbounds %"class.icu_75::Normalizer2DataBuilder", ptr %this1, i32 0, i32 4
  %arrayidx = getelementptr inbounds [20 x i32], ptr %indexes, i64 0, i64 9
  %10 = load i32, ptr %arrayidx, align 4
  %cmp6 = icmp slt i32 4449, %10
  br i1 %cmp6, label %if.then7, label %if.end10

if.then7:                                         ; preds = %while.end
  %indexes8 = getelementptr inbounds %"class.icu_75::Normalizer2DataBuilder", ptr %this1, i32 0, i32 4
  %arrayidx9 = getelementptr inbounds [20 x i32], ptr %indexes8, i64 0, i64 9
  store i32 4449, ptr %arrayidx9, align 4
  br label %if.end10

if.end10:                                         ; preds = %if.then7, %while.end
  %11 = load ptr, ptr %norm16Trie.addr, align 8
  %call11 = invoke noundef ptr @_ZN6icu_759ErrorCodecvP10UErrorCodeEv(ptr noundef nonnull align 8 dereferenceable(12) %errorCode)
          to label %invoke.cont unwind label %lpad

invoke.cont:                                      ; preds = %if.end10
  invoke void @umutablecptrie_setRange_75(ptr noundef %11, i32 noundef 4352, i32 noundef 4370, i32 noundef 2, ptr noundef %call11)
          to label %invoke.cont12 unwind label %lpad

invoke.cont12:                                    ; preds = %invoke.cont
  %12 = load ptr, ptr %norm16Trie.addr, align 8
  %call14 = invoke noundef ptr @_ZN6icu_759ErrorCodecvP10UErrorCodeEv(ptr noundef nonnull align 8 dereferenceable(12) %errorCode)
          to label %invoke.cont13 unwind label %lpad

invoke.cont13:                                    ; preds = %invoke.cont12
  invoke void @umutablecptrie_setRange_75(ptr noundef %12, i32 noundef 4449, i32 noundef 4469, i32 noundef 65024, ptr noundef %call14)
          to label %invoke.cont15 unwind label %lpad

invoke.cont15:                                    ; preds = %invoke.cont13
  %13 = load ptr, ptr %norm16Trie.addr, align 8
  %call17 = invoke noundef ptr @_ZN6icu_759ErrorCodecvP10UErrorCodeEv(ptr noundef nonnull align 8 dereferenceable(12) %errorCode)
          to label %invoke.cont16 unwind label %lpad

invoke.cont16:                                    ; preds = %invoke.cont15
  invoke void @umutablecptrie_setRange_75(ptr noundef %13, i32 noundef 4520, i32 noundef 4546, i32 noundef 65024, ptr noundef %call17)
          to label %invoke.cont18 unwind label %lpad

invoke.cont18:                                    ; preds = %invoke.cont16
  %indexes19 = getelementptr inbounds %"class.icu_75::Normalizer2DataBuilder", ptr %this1, i32 0, i32 4
  %arrayidx20 = getelementptr inbounds [20 x i32], ptr %indexes19, i64 0, i64 10
  %14 = load i32, ptr %arrayidx20, align 4
  store i32 %14, ptr %lv, align 4
  %indexes21 = getelementptr inbounds %"class.icu_75::Normalizer2DataBuilder", ptr %this1, i32 0, i32 4
  %arrayidx22 = getelementptr inbounds [20 x i32], ptr %indexes21, i64 0, i64 14
  %15 = load i32, ptr %arrayidx22, align 4
  %or = or i32 %15, 1
  store i32 %or, ptr %lvt, align 4
  %indexes23 = getelementptr inbounds %"class.icu_75::Normalizer2DataBuilder", ptr %this1, i32 0, i32 4
  %arrayidx24 = getelementptr inbounds [20 x i32], ptr %indexes23, i64 0, i64 8
  %16 = load i32, ptr %arrayidx24, align 4
  %cmp25 = icmp slt i32 44032, %16
  br i1 %cmp25, label %if.then26, label %if.end29

if.then26:                                        ; preds = %invoke.cont18
  %indexes27 = getelementptr inbounds %"class.icu_75::Normalizer2DataBuilder", ptr %this1, i32 0, i32 4
  %arrayidx28 = getelementptr inbounds [20 x i32], ptr %indexes27, i64 0, i64 8
  store i32 44032, ptr %arrayidx28, align 4
  br label %if.end29

lpad:                                             ; preds = %while.end43, %invoke.cont40, %while.body39, %invoke.cont33, %invoke.cont32, %invoke.cont30, %if.end29, %invoke.cont16, %invoke.cont15, %invoke.cont13, %invoke.cont12, %invoke.cont, %if.end10
  %17 = landingpad { ptr, i32 }
          cleanup
  %18 = extractvalue { ptr, i32 } %17, 0
  store ptr %18, ptr %exn.slot, align 8
  %19 = extractvalue { ptr, i32 } %17, 1
  store i32 %19, ptr %ehselector.slot, align 4
  call void @_ZN6icu_7516IcuToolErrorCodeD1Ev(ptr noundef nonnull align 8 dereferenceable(24) %errorCode) #12
  br label %eh.resume

if.end29:                                         ; preds = %if.then26, %invoke.cont18
  %20 = load ptr, ptr %norm16Trie.addr, align 8
  %21 = load i32, ptr %lv, align 4
  %call31 = invoke noundef ptr @_ZN6icu_759ErrorCodecvP10UErrorCodeEv(ptr noundef nonnull align 8 dereferenceable(12) %errorCode)
          to label %invoke.cont30 unwind label %lpad

invoke.cont30:                                    ; preds = %if.end29
  invoke void @umutablecptrie_set_75(ptr noundef %20, i32 noundef 44032, i32 noundef %21, ptr noundef %call31)
          to label %invoke.cont32 unwind label %lpad

invoke.cont32:                                    ; preds = %invoke.cont30
  %22 = load ptr, ptr %norm16Trie.addr, align 8
  %23 = load i32, ptr %lvt, align 4
  %call34 = invoke noundef ptr @_ZN6icu_759ErrorCodecvP10UErrorCodeEv(ptr noundef nonnull align 8 dereferenceable(12) %errorCode)
          to label %invoke.cont33 unwind label %lpad

invoke.cont33:                                    ; preds = %invoke.cont32
  invoke void @umutablecptrie_setRange_75(ptr noundef %22, i32 noundef 44033, i32 noundef 55203, i32 noundef %23, ptr noundef %call34)
          to label %invoke.cont35 unwind label %lpad

invoke.cont35:                                    ; preds = %invoke.cont33
  store i32 44032, ptr %c36, align 4
  br label %while.cond37

while.cond37:                                     ; preds = %invoke.cont42, %invoke.cont35
  %24 = load i32, ptr %c36, align 4
  %add = add nsw i32 %24, 28
  store i32 %add, ptr %c36, align 4
  %cmp38 = icmp sle i32 %add, 55203
  br i1 %cmp38, label %while.body39, label %while.end43

while.body39:                                     ; preds = %while.cond37
  %25 = load ptr, ptr %norm16Trie.addr, align 8
  %26 = load i32, ptr %c36, align 4
  %27 = load i32, ptr %lv, align 4
  %call41 = invoke noundef ptr @_ZN6icu_759ErrorCodecvP10UErrorCodeEv(ptr noundef nonnull align 8 dereferenceable(12) %errorCode)
          to label %invoke.cont40 unwind label %lpad

invoke.cont40:                                    ; preds = %while.body39
  invoke void @umutablecptrie_set_75(ptr noundef %25, i32 noundef %26, i32 noundef %27, ptr noundef %call41)
          to label %invoke.cont42 unwind label %lpad

invoke.cont42:                                    ; preds = %invoke.cont40
  br label %while.cond37, !llvm.loop !13

while.end43:                                      ; preds = %while.cond37
  invoke void @_ZNK6icu_759ErrorCode13assertSuccessEv(ptr noundef nonnull align 8 dereferenceable(12) %errorCode)
          to label %invoke.cont44 unwind label %lpad

invoke.cont44:                                    ; preds = %while.end43
  call void @_ZN6icu_7516IcuToolErrorCodeD1Ev(ptr noundef nonnull align 8 dereferenceable(24) %errorCode) #12
  ret void

eh.resume:                                        ; preds = %lpad
  %exn = load ptr, ptr %exn.slot, align 8
  %sel = load i32, ptr %ehselector.slot, align 4
  %lpad.val = insertvalue { ptr, i32 } poison, ptr %exn, 0
  %lpad.val45 = insertvalue { ptr, i32 } %lpad.val, i32 %sel, 1
  resume { ptr, i32 } %lpad.val45
}