; Function Attrs: mustprogress uwtable
define dso_local void @_ZN6icu_7522Normalizer2DataBuilder13setHangulDataEP14UMutableCPTrie(ptr nocapture noundef nonnull align 8 dereferenceable(860) %this, ptr noundef %norm16Trie) local_unnamed_addr #1 align 2 personality ptr @__gxx_personality_v0 {
entry:
  %errorCode = alloca %"class.icu_75::IcuToolErrorCode", align 8
  br label %while.body

while.cond.loopexit:                              ; preds = %for.inc, %while.body
  %exitcond29.not = icmp eq i64 %indvars.iv.next, 4
  br i1 %exitcond29.not, label %while.end, label %while.body, !llvm.loop !12

while.body:                                       ; preds = %entry, %while.cond.loopexit
  %indvars.iv = phi i64 [ 0, %entry ], [ %indvars.iv.next, %while.cond.loopexit ]
  %indvars.iv.next = add nuw nsw i64 %indvars.iv, 1
  %add.ptr.i = getelementptr inbounds %"struct.icu_75::HangulIterator::Range", ptr @_ZN6icu_7514HangulIterator6rangesE, i64 %indvars.iv
  %0 = load i32, ptr %add.ptr.i, align 8
  %end = getelementptr inbounds i8, ptr %add.ptr.i, i64 4
  %1 = load i32, ptr %end, align 4
  %cmp2.not24 = icmp sgt i32 %0, %1
  br i1 %cmp2.not24, label %while.cond.loopexit, label %for.body

for.body:                                         ; preds = %while.body, %for.inc
  %c.025 = phi i32 [ %inc, %for.inc ], [ %0, %while.body ]
  %call3 = tail call i32 @umutablecptrie_get_75(ptr noundef %norm16Trie, i32 noundef %c.025)
  %cmp4 = icmp ugt i32 %call3, 1
  br i1 %cmp4, label %if.then, label %for.inc

if.then:                                          ; preds = %for.body
  %2 = load ptr, ptr @stderr, align 8
  %conv = sext i32 %c.025 to i64
  %call5 = tail call i32 (ptr, ptr, ...) @fprintf(ptr noundef %2, ptr noundef nonnull @.str.10, i64 noundef %conv) #21
  tail call void @exit(i32 noundef 3) #19
  unreachable

for.inc:                                          ; preds = %for.body
  %inc = add i32 %c.025, 1
  %exitcond.not = icmp eq i32 %c.025, %1
  br i1 %exitcond.not, label %while.cond.loopexit, label %for.body, !llvm.loop !13

while.end:                                        ; preds = %while.cond.loopexit
  %errorCode.i.i = getelementptr inbounds i8, ptr %errorCode, i64 8
  store i32 0, ptr %errorCode.i.i, align 8
  store ptr getelementptr inbounds ({ [5 x ptr] }, ptr @_ZTVN6icu_7516IcuToolErrorCodeE, i64 0, i32 0, i64 2), ptr %errorCode, align 8
  %location.i = getelementptr inbounds i8, ptr %errorCode, i64 16
  store ptr @.str.11, ptr %location.i, align 8
  %arrayidx = getelementptr inbounds i8, ptr %this, i64 472
  %3 = load i32, ptr %arrayidx, align 8
  %cmp6 = icmp sgt i32 %3, 4449
  br i1 %cmp6, label %if.then7, label %if.end10

if.then7:                                         ; preds = %while.end
  store i32 4449, ptr %arrayidx, align 8
  br label %if.end10

if.end10:                                         ; preds = %if.then7, %while.end
  invoke void @umutablecptrie_setRange_75(ptr noundef %norm16Trie, i32 noundef 4352, i32 noundef 4370, i32 noundef 2, ptr noundef nonnull %errorCode.i.i)
          to label %invoke.cont12 unwind label %lpad.loopexit.split-lp

invoke.cont12:                                    ; preds = %if.end10
  invoke void @umutablecptrie_setRange_75(ptr noundef %norm16Trie, i32 noundef 4449, i32 noundef 4469, i32 noundef 65024, ptr noundef nonnull %errorCode.i.i)
          to label %invoke.cont15 unwind label %lpad.loopexit.split-lp

invoke.cont15:                                    ; preds = %invoke.cont12
  invoke void @umutablecptrie_setRange_75(ptr noundef %norm16Trie, i32 noundef 4520, i32 noundef 4546, i32 noundef 65024, ptr noundef nonnull %errorCode.i.i)
          to label %invoke.cont18 unwind label %lpad.loopexit.split-lp

invoke.cont18:                                    ; preds = %invoke.cont15
  %arrayidx20 = getelementptr inbounds i8, ptr %this, i64 476
  %4 = load i32, ptr %arrayidx20, align 4
  %arrayidx22 = getelementptr inbounds i8, ptr %this, i64 492
  %5 = load i32, ptr %arrayidx22, align 4
  %or = or i32 %5, 1
  %arrayidx24 = getelementptr inbounds i8, ptr %this, i64 468
  %6 = load i32, ptr %arrayidx24, align 4
  %cmp25 = icmp sgt i32 %6, 44032
  br i1 %cmp25, label %if.then26, label %if.end29

if.then26:                                        ; preds = %invoke.cont18
  store i32 44032, ptr %arrayidx24, align 4
  br label %if.end29

lpad.loopexit:                                    ; preds = %while.body39
  %lpad.loopexit21 = landingpad { ptr, i32 }
          cleanup
  br label %lpad

lpad.loopexit.split-lp:                           ; preds = %if.end10, %invoke.cont12, %invoke.cont15, %if.end29, %invoke.cont32, %while.end43
  %lpad.loopexit.split-lp22 = landingpad { ptr, i32 }
          cleanup
  br label %lpad

lpad:                                             ; preds = %lpad.loopexit.split-lp, %lpad.loopexit
  %lpad.phi = phi { ptr, i32 } [ %lpad.loopexit21, %lpad.loopexit ], [ %lpad.loopexit.split-lp22, %lpad.loopexit.split-lp ]
  call void @_ZN6icu_7516IcuToolErrorCodeD1Ev(ptr noundef nonnull align 8 dereferenceable(24) %errorCode) #17
  resume { ptr, i32 } %lpad.phi

if.end29:                                         ; preds = %if.then26, %invoke.cont18
  invoke void @umutablecptrie_set_75(ptr noundef %norm16Trie, i32 noundef 44032, i32 noundef %4, ptr noundef nonnull %errorCode.i.i)
          to label %invoke.cont32 unwind label %lpad.loopexit.split-lp

invoke.cont32:                                    ; preds = %if.end29
  invoke void @umutablecptrie_setRange_75(ptr noundef %norm16Trie, i32 noundef 44033, i32 noundef 55203, i32 noundef %or, ptr noundef nonnull %errorCode.i.i)
          to label %while.cond37 unwind label %lpad.loopexit.split-lp

while.cond37:                                     ; preds = %invoke.cont32, %while.body39
  %c36.0 = phi i32 [ %add, %while.body39 ], [ 44032, %invoke.cont32 ]
  %cmp38 = icmp ult i32 %c36.0, 55176
  br i1 %cmp38, label %while.body39, label %while.end43

while.body39:                                     ; preds = %while.cond37
  %add = add nuw nsw i32 %c36.0, 28
  invoke void @umutablecptrie_set_75(ptr noundef %norm16Trie, i32 noundef %add, i32 noundef %4, ptr noundef nonnull %errorCode.i.i)
          to label %while.cond37 unwind label %lpad.loopexit, !llvm.loop !14

while.end43:                                      ; preds = %while.cond37
  invoke void @_ZNK6icu_759ErrorCode13assertSuccessEv(ptr noundef nonnull align 8 dereferenceable(12) %errorCode)
          to label %invoke.cont44 unwind label %lpad.loopexit.split-lp

invoke.cont44:                                    ; preds = %while.end43
  call void @_ZN6icu_7516IcuToolErrorCodeD1Ev(ptr noundef nonnull align 8 dereferenceable(24) %errorCode) #17
  ret void
}